target datalayout = "e-m:e-p270:32:32-p271:32:32-p272:64:64-i64:64-i128:128-f80:128-n8:16:32:64-S128"
target triple = "x86_64-pc-linux-gnu"

%struct.key_st = type { ptr, i32, ptr, ptr }

; Function Attrs: nounwind uwtable
define dso_local void @cleanup_tests() #0 {
  %1 = alloca i64, align 8
  call void @llvm.lifetime.start.p0(i64 8, ptr %1) #4
  store i64 0, ptr %1, align 8, !tbaa !4
  br label %2

2:                                                ; preds = %10, %0
  %3 = load i64, ptr %1, align 8, !tbaa !4
  %4 = icmp ult i64 %3, 5
  br i1 %4, label %5, label %13

5:                                                ; preds = %2
  %6 = load i64, ptr %1, align 8, !tbaa !4
  %7 = getelementptr inbounds nuw [5 x %struct.key_st], ptr @keys, i64 0, i64 %6
  %8 = getelementptr inbounds nuw %struct.key_st, ptr %7, i32 0, i32 3
  %9 = load ptr, ptr %8, align 8, !tbaa !15
  call void @EVP_PKEY_free(ptr noundef %9)
  br label %10

10:                                               ; preds = %5
  %11 = load i64, ptr %1, align 8, !tbaa !4
  %12 = add i64 %11, 1
  store i64 %12, ptr %1, align 8, !tbaa !4
  br label %2, !llvm.loop !57

13:                                               ; preds = %2
  call void @llvm.lifetime.end.p0(i64 8, ptr %1) #4
  ret void
}